target datalayout = "e-m:e-p270:32:32-p271:32:32-p272:64:64-i64:64-i128:128-f80:128-n8:16:32:64-S128"
target triple = "x86_64-pc-linux-gnu"

%struct.pmix_tma = type { ptr, ptr, ptr, ptr, ptr, ptr, ptr, ptr }
%struct.pmix_coord = type { i8, ptr, i64 }

; Function Attrs: inlinehint nounwind uwtable
define internal void @pmix_tma_free(ptr noundef %0, ptr noundef %1) #2 {
  %3 = alloca ptr, align 8
  %4 = alloca ptr, align 8
  store ptr %0, ptr %3, align 8, !tbaa !15
  store ptr %1, ptr %4, align 8, !tbaa !10
  %5 = load ptr, ptr %3, align 8, !tbaa !15
  %6 = icmp ne ptr null, %5
  br i1 %6, label %7, label %13

7:                                                ; preds = %2
  %8 = load ptr, ptr %3, align 8, !tbaa !15
  %9 = getelementptr inbounds nuw %struct.pmix_tma, ptr %8, i32 0, i32 5
  %10 = load ptr, ptr %9, align 8, !tbaa !104
  %11 = load ptr, ptr %3, align 8, !tbaa !15
  %12 = load ptr, ptr %4, align 8, !tbaa !10
  call void %10(ptr noundef %11, ptr noundef %12)
  br label %15

13:                                               ; preds = %2
  %14 = load ptr, ptr %4, align 8, !tbaa !10
  call void @free(ptr noundef %14) #15
  br label %15

15:                                               ; preds = %13, %7
  ret void
}

; Function Attrs: inlinehint nounwind uwtable
define internal void @pmix_bfrops_base_tma_coord_destruct(ptr noundef %0, ptr noundef %1) #2 {
  %3 = alloca ptr, align 8
  %4 = alloca ptr, align 8
  store ptr %0, ptr %3, align 8, !tbaa !122
  store ptr %1, ptr %4, align 8, !tbaa !15
  %5 = load ptr, ptr %3, align 8, !tbaa !122
  %6 = icmp ne ptr null, %5
  br i1 %6, label %7, label %24

7:                                                ; preds = %2
  %8 = load ptr, ptr %3, align 8, !tbaa !122
  %9 = getelementptr inbounds nuw %struct.pmix_coord, ptr %8, i32 0, i32 0
  store i8 0, ptr %9, align 8, !tbaa !205
  %10 = load ptr, ptr %3, align 8, !tbaa !122
  %11 = getelementptr inbounds nuw %struct.pmix_coord, ptr %10, i32 0, i32 1
  %12 = load ptr, ptr %11, align 8, !tbaa !208
  %13 = icmp ne ptr null, %12
  br i1 %13, label %14, label %23

14:                                               ; preds = %7
  %15 = load ptr, ptr %4, align 8, !tbaa !15
  %16 = load ptr, ptr %3, align 8, !tbaa !122
  %17 = getelementptr inbounds nuw %struct.pmix_coord, ptr %16, i32 0, i32 1
  %18 = load ptr, ptr %17, align 8, !tbaa !208
  call void @pmix_tma_free(ptr noundef %15, ptr noundef %18)
  %19 = load ptr, ptr %3, align 8, !tbaa !122
  %20 = getelementptr inbounds nuw %struct.pmix_coord, ptr %19, i32 0, i32 1
  store ptr null, ptr %20, align 8, !tbaa !208
  %21 = load ptr, ptr %3, align 8, !tbaa !122
  %22 = getelementptr inbounds nuw %struct.pmix_coord, ptr %21, i32 0, i32 2
  store i64 0, ptr %22, align 8, !tbaa !209
  br label %23

23:                                               ; preds = %14, %7
  br label %24

24:                                               ; preds = %23, %2
  ret void
}