; Function Attrs: inlinehint nounwind uwtable
define internal fastcc void @pmix_bfrops_base_tma_coord_destruct(ptr noundef nonnull captures(none) initializes((0, 1)) %0, ptr noundef %1) unnamed_addr #4 {
  store i8 0, ptr %0, align 8, !tbaa !106
  %3 = getelementptr inbounds nuw i8, ptr %0, i64 8
  %4 = load ptr, ptr %3, align 8, !tbaa !109
  %.not = icmp eq ptr %4, null
  br i1 %.not, label %10, label %5

5:                                                ; preds = %2
  %.not.i = icmp eq ptr %1, null
  br i1 %.not.i, label %9, label %6

6:                                                ; preds = %5
  %7 = getelementptr inbounds nuw i8, ptr %1, i64 40
  %8 = load ptr, ptr %7, align 8, !tbaa !38
  tail call void %8(ptr noundef nonnull %1, ptr noundef nonnull %4) #17
  br label %pmix_tma_free.exit

9:                                                ; preds = %5
  tail call void @free(ptr noundef nonnull %4) #17
  br label %pmix_tma_free.exit

pmix_tma_free.exit:                               ; preds = %6, %9
  tail call void @llvm.memset.p0.i64(ptr noundef nonnull align 8 dereferenceable(16) %3, i8 0, i64 16, i1 false)
  br label %10

10:                                               ; preds = %2, %pmix_tma_free.exit
  ret void
}